target datalayout = "e-m:e-p270:32:32-p271:32:32-p272:64:64-i64:64-i128:128-f80:128-n8:16:32:64-S128"
target triple = "x86_64-pc-linux-gnu"

%struct._packet_info = type { ptr, ptr, i32, i32, %struct.nstime_t, %struct.nstime_t, %struct.nstime_t, i8, ptr, ptr, ptr, ptr, %struct._address, %struct._address, %struct._address, %struct._address, %struct._address, %struct._address, i32, ptr, i8, [3 x i8], %struct.anon, i32, i32, i32, i32, ptr, i8, ptr, ptr, i16, i16, i32, i32, i16, i32, i32, ptr, ptr, ptr, i8, i8, i16, i16, i16, i32, i16, i16, ptr, ptr, ptr, ptr, ptr, i32, i32 }
%struct.nstime_t = type { i64, i32 }
%struct._address = type { i32, i32, ptr, ptr }
%struct.anon = type { i8, [3 x i8] }

@hf_raknet_NACK_record_count = internal global i32 0, align 4
@hf_raknet_packet_number_range = internal global i32 0, align 4
@hf_raknet_range_max_equal_to_min = internal global i32 0, align 4
@hf_raknet_packet_number_min = internal global i32 0, align 4
@hf_raknet_packet_number_max = internal global i32 0, align 4
@ett_raknet_packet_number_range = internal global i32 0, align 4
@.str.169 = private unnamed_addr constant [3 x i8] c", \00", align 1
@.str.170 = private unnamed_addr constant [4 x i8] c"ACK\00", align 1
@.str.171 = private unnamed_addr constant [4 x i8] c"NAK\00", align 1
@.str.172 = private unnamed_addr constant [2 x i8] c" \00", align 1
@.str.173 = private unnamed_addr constant [4 x i8] c"#%u\00", align 1
@.str.174 = private unnamed_addr constant [1 x i8] zeroinitializer, align 1
@.str.175 = private unnamed_addr constant [9 x i8] c"%u .. %u\00", align 1
@.str.176 = private unnamed_addr constant [8 x i8] c"#%u..%u\00", align 1

; Function Attrs: null_pointer_is_valid sspstrong uwtable
define internal i32 @raknet_dissect_ACK(ptr noundef %0, ptr noundef %1, ptr noundef %2, ptr noundef %3) #0 {
  %5 = alloca ptr, align 8
  %6 = alloca ptr, align 8
  %7 = alloca ptr, align 8
  %8 = alloca ptr, align 8
  %9 = alloca i32, align 4
  %10 = alloca ptr, align 8
  %11 = alloca i32, align 4
  %12 = alloca i32, align 4
  %13 = alloca ptr, align 8
  %14 = alloca i32, align 4
  %15 = alloca i32, align 4
  store ptr %0, ptr %5, align 8
  store ptr %1, ptr %6, align 8
  store ptr %2, ptr %7, align 8
  store ptr %3, ptr %8, align 8
  call void @llvm.lifetime.start.p0(i64 4, ptr %9) #6
  store i32 0, ptr %9, align 4
  call void @llvm.lifetime.start.p0(i64 8, ptr %10) #6
  call void @llvm.lifetime.start.p0(i64 4, ptr %11) #6
  call void @llvm.lifetime.start.p0(i64 4, ptr %12) #6
  %16 = load ptr, ptr %8, align 8
  %17 = load i8, ptr %16, align 1, !range !11, !noundef !12
  %18 = trunc i8 %17 to i1
  br i1 %18, label %19, label %23

19:                                               ; preds = %4
  %20 = load ptr, ptr %6, align 8
  %21 = getelementptr inbounds nuw %struct._packet_info, ptr %20, i32 0, i32 1
  %22 = load ptr, ptr %21, align 8
  call void @col_set_str(ptr noundef %22, i32 noundef 25, ptr noundef @.str.170)
  br label %27

23:                                               ; preds = %4
  %24 = load ptr, ptr %6, align 8
  %25 = getelementptr inbounds nuw %struct._packet_info, ptr %24, i32 0, i32 1
  %26 = load ptr, ptr %25, align 8
  call void @col_set_str(ptr noundef %26, i32 noundef 25, ptr noundef @.str.171)
  br label %27

27:                                               ; preds = %23, %19
  %28 = load ptr, ptr %7, align 8
  %29 = load i32, ptr @hf_raknet_NACK_record_count, align 4
  %30 = load ptr, ptr %5, align 8
  %31 = load i32, ptr %9, align 4
  %32 = call ptr @proto_tree_add_item_ret_uint(ptr noundef %28, i32 noundef %29, ptr noundef %30, i32 noundef %31, i32 noundef 2, i32 noundef 0, ptr noundef %11)
  %33 = load i32, ptr %9, align 4
  %34 = add i32 %33, 2
  store i32 %34, ptr %9, align 4
  store i32 0, ptr %12, align 4
  br label %35

35:                                               ; preds = %135, %27
  %36 = load i32, ptr %12, align 4
  %37 = load i32, ptr %11, align 4
  %38 = icmp ult i32 %36, %37
  br i1 %38, label %39, label %138

39:                                               ; preds = %35
  call void @llvm.lifetime.start.p0(i64 8, ptr %13) #6
  call void @llvm.lifetime.start.p0(i64 4, ptr %14) #6
  call void @llvm.lifetime.start.p0(i64 4, ptr %15) #6
  %40 = load i32, ptr %12, align 4
  %41 = icmp eq i32 %40, 0
  br i1 %41, label %42, label %46

42:                                               ; preds = %39
  %43 = load ptr, ptr %6, align 8
  %44 = getelementptr inbounds nuw %struct._packet_info, ptr %43, i32 0, i32 1
  %45 = load ptr, ptr %44, align 8
  call void @col_append_str(ptr noundef %45, i32 noundef 25, ptr noundef @.str.172)
  br label %50

46:                                               ; preds = %39
  %47 = load ptr, ptr %6, align 8
  %48 = getelementptr inbounds nuw %struct._packet_info, ptr %47, i32 0, i32 1
  %49 = load ptr, ptr %48, align 8
  call void @col_append_str(ptr noundef %49, i32 noundef 25, ptr noundef @.str.169)
  br label %50

50:                                               ; preds = %46, %42
  %51 = load ptr, ptr %5, align 8
  %52 = load i32, ptr %9, align 4
  %53 = call zeroext i8 @tvb_get_uint8(ptr noundef %51, i32 noundef %52)
  %54 = icmp ne i8 %53, 0
  br i1 %54, label %55, label %88

55:                                               ; preds = %50
  %56 = load ptr, ptr %5, align 8
  %57 = load i32, ptr %9, align 4
  %58 = add i32 %57, 1
  %59 = call i32 @tvb_get_uint24(ptr noundef %56, i32 noundef %58, i32 noundef -2147483648)
  store i32 %59, ptr %15, align 4
  %60 = load ptr, ptr %6, align 8
  %61 = getelementptr inbounds nuw %struct._packet_info, ptr %60, i32 0, i32 1
  %62 = load ptr, ptr %61, align 8
  %63 = load i32, ptr %15, align 4
  call void (ptr, i32, ptr, ...) @col_append_fstr(ptr noundef %62, i32 noundef 25, ptr noundef @.str.173, i32 noundef %63)
  %64 = load ptr, ptr %7, align 8
  %65 = load i32, ptr @hf_raknet_packet_number_range, align 4
  %66 = load ptr, ptr %5, align 8
  %67 = load i32, ptr %9, align 4
  %68 = load i32, ptr %15, align 4
  %69 = load i32, ptr %15, align 4
  %70 = call ptr (ptr, i32, ptr, i32, i32, ptr, ptr, ...) @proto_tree_add_string_format_value(ptr noundef %64, i32 noundef %65, ptr noundef %66, i32 noundef %67, i32 noundef 4, ptr noundef @.str.174, ptr noundef @.str.175, i32 noundef %68, i32 noundef %69)
  store ptr %70, ptr %13, align 8
  %71 = load ptr, ptr %13, align 8
  %72 = load i32, ptr @ett_raknet_packet_number_range, align 4
  %73 = call ptr @proto_item_add_subtree(ptr noundef %71, i32 noundef %72)
  store ptr %73, ptr %10, align 8
  %74 = load ptr, ptr %10, align 8
  %75 = load i32, ptr @hf_raknet_range_max_equal_to_min, align 4
  %76 = load ptr, ptr %5, align 8
  %77 = load i32, ptr %9, align 4
  %78 = call ptr @proto_tree_add_item(ptr noundef %74, i32 noundef %75, ptr noundef %76, i32 noundef %77, i32 noundef 1, i32 noundef 0)
  %79 = load i32, ptr %9, align 4
  %80 = add i32 %79, 1
  store i32 %80, ptr %9, align 4
  %81 = load ptr, ptr %10, align 8
  %82 = load i32, ptr @hf_raknet_packet_number_min, align 4
  %83 = load ptr, ptr %5, align 8
  %84 = load i32, ptr %9, align 4
  %85 = call ptr @proto_tree_add_item(ptr noundef %81, i32 noundef %82, ptr noundef %83, i32 noundef %84, i32 noundef 3, i32 noundef -2147483648)
  %86 = load i32, ptr %9, align 4
  %87 = add i32 %86, 3
  store i32 %87, ptr %9, align 4
  br label %134

88:                                               ; preds = %50
  %89 = load ptr, ptr %5, align 8
  %90 = load i32, ptr %9, align 4
  %91 = add i32 %90, 1
  %92 = call i32 @tvb_get_uint24(ptr noundef %89, i32 noundef %91, i32 noundef -2147483648)
  store i32 %92, ptr %15, align 4
  %93 = load ptr, ptr %5, align 8
  %94 = load i32, ptr %9, align 4
  %95 = add i32 %94, 1
  %96 = add i32 %95, 3
  %97 = call i32 @tvb_get_uint24(ptr noundef %93, i32 noundef %96, i32 noundef -2147483648)
  store i32 %97, ptr %14, align 4
  %98 = load ptr, ptr %6, align 8
  %99 = getelementptr inbounds nuw %struct._packet_info, ptr %98, i32 0, i32 1
  %100 = load ptr, ptr %99, align 8
  %101 = load i32, ptr %15, align 4
  %102 = load i32, ptr %14, align 4
  call void (ptr, i32, ptr, ...) @col_append_fstr(ptr noundef %100, i32 noundef 25, ptr noundef @.str.176, i32 noundef %101, i32 noundef %102)
  %103 = load ptr, ptr %7, align 8
  %104 = load i32, ptr @hf_raknet_packet_number_range, align 4
  %105 = load ptr, ptr %5, align 8
  %106 = load i32, ptr %9, align 4
  %107 = load i32, ptr %15, align 4
  %108 = load i32, ptr %14, align 4
  %109 = call ptr (ptr, i32, ptr, i32, i32, ptr, ptr, ...) @proto_tree_add_string_format_value(ptr noundef %103, i32 noundef %104, ptr noundef %105, i32 noundef %106, i32 noundef 7, ptr noundef @.str.174, ptr noundef @.str.175, i32 noundef %107, i32 noundef %108)
  store ptr %109, ptr %13, align 8
  %110 = load ptr, ptr %13, align 8
  %111 = load i32, ptr @ett_raknet_packet_number_range, align 4
  %112 = call ptr @proto_item_add_subtree(ptr noundef %110, i32 noundef %111)
  store ptr %112, ptr %10, align 8
  %113 = load ptr, ptr %10, align 8
  %114 = load i32, ptr @hf_raknet_range_max_equal_to_min, align 4
  %115 = load ptr, ptr %5, align 8
  %116 = load i32, ptr %9, align 4
  %117 = call ptr @proto_tree_add_item(ptr noundef %113, i32 noundef %114, ptr noundef %115, i32 noundef %116, i32 noundef 1, i32 noundef 0)
  %118 = load i32, ptr %9, align 4
  %119 = add i32 %118, 1
  store i32 %119, ptr %9, align 4
  %120 = load ptr, ptr %10, align 8
  %121 = load i32, ptr @hf_raknet_packet_number_min, align 4
  %122 = load ptr, ptr %5, align 8
  %123 = load i32, ptr %9, align 4
  %124 = call ptr @proto_tree_add_item(ptr noundef %120, i32 noundef %121, ptr noundef %122, i32 noundef %123, i32 noundef 3, i32 noundef -2147483648)
  %125 = load i32, ptr %9, align 4
  %126 = add i32 %125, 3
  store i32 %126, ptr %9, align 4
  %127 = load ptr, ptr %10, align 8
  %128 = load i32, ptr @hf_raknet_packet_number_max, align 4
  %129 = load ptr, ptr %5, align 8
  %130 = load i32, ptr %9, align 4
  %131 = call ptr @proto_tree_add_item(ptr noundef %127, i32 noundef %128, ptr noundef %129, i32 noundef %130, i32 noundef 3, i32 noundef -2147483648)
  %132 = load i32, ptr %9, align 4
  %133 = add i32 %132, 3
  store i32 %133, ptr %9, align 4
  br label %134

134:                                              ; preds = %88, %55
  call void @llvm.lifetime.end.p0(i64 4, ptr %15) #6
  call void @llvm.lifetime.end.p0(i64 4, ptr %14) #6
  call void @llvm.lifetime.end.p0(i64 8, ptr %13) #6
  br label %135

135:                                              ; preds = %134
  %136 = load i32, ptr %12, align 4
  %137 = add i32 %136, 1
  store i32 %137, ptr %12, align 4
  br label %35, !llvm.loop !13

138:                                              ; preds = %35
  %139 = load ptr, ptr %5, align 8
  %140 = call i32 @tvb_captured_length(ptr noundef %139)
  call void @llvm.lifetime.end.p0(i64 4, ptr %12) #6
  call void @llvm.lifetime.end.p0(i64 4, ptr %11) #6
  call void @llvm.lifetime.end.p0(i64 8, ptr %10) #6
  call void @llvm.lifetime.end.p0(i64 4, ptr %9) #6
  ret i32 %140
}