; Function Attrs: null_pointer_is_valid sspstrong uwtable
define internal fastcc void @raknet_dissect_ACK(ptr noundef %0, ptr noundef readonly captures(none) %1, ptr noundef nonnull %2, i8 %.0.val) unnamed_addr #0 {
  %4 = alloca i32, align 4
  call void @llvm.lifetime.start.p0(i64 4, ptr nonnull %4) #5
  %5 = trunc nuw i8 %.0.val to i1
  %6 = getelementptr inbounds nuw i8, ptr %1, i64 8
  %7 = load ptr, ptr %6, align 8
  %.str.170..str.171 = select i1 %5, ptr @.str.170, ptr @.str.171
  tail call void @col_set_str(ptr noundef %7, i32 noundef 25, ptr noundef nonnull %.str.170..str.171)
  %8 = load i32, ptr @hf_raknet_NACK_record_count, align 4
  %9 = call ptr @proto_tree_add_item_ret_uint(ptr noundef nonnull %2, i32 noundef %8, ptr noundef %0, i32 noundef 0, i32 noundef 2, i32 noundef 0, ptr noundef nonnull %4)
  %10 = load i32, ptr %4, align 4
  %.not3 = icmp eq i32 %10, 0
  br i1 %.not3, label %._crit_edge, label %.lr.ph

.lr.ph:                                           ; preds = %3
  %11 = getelementptr inbounds nuw i8, ptr %1, i64 8
  br label %12

12:                                               ; preds = %.lr.ph, %42
  %.02 = phi i32 [ 2, %.lr.ph ], [ %43, %42 ]
  %.0571 = phi i32 [ 0, %.lr.ph ], [ %44, %42 ]
  %13 = icmp eq i32 %.0571, 0
  %14 = load ptr, ptr %11, align 8
  %.str.172..str.169 = select i1 %13, ptr @.str.172, ptr @.str.169
  call void @col_append_str(ptr noundef %14, i32 noundef 25, ptr noundef nonnull %.str.172..str.169)
  %15 = call zeroext i8 @tvb_get_uint8(ptr noundef %0, i32 noundef %.02)
  %.not = icmp eq i8 %15, 0
  %16 = add i32 %.02, 1
  %17 = call i32 @tvb_get_uint24(ptr noundef %0, i32 noundef %16, i32 noundef -2147483648)
  br i1 %.not, label %28, label %18

18:                                               ; preds = %12
  %19 = load ptr, ptr %11, align 8
  call void (ptr, i32, ptr, ...) @col_append_fstr(ptr noundef %19, i32 noundef 25, ptr noundef nonnull @.str.173, i32 noundef %17)
  %20 = load i32, ptr @hf_raknet_packet_number_range, align 4
  %21 = call ptr (ptr, i32, ptr, i32, i32, ptr, ptr, ...) @proto_tree_add_string_format_value(ptr noundef nonnull %2, i32 noundef %20, ptr noundef %0, i32 noundef %.02, i32 noundef 4, ptr noundef nonnull @.str.174, ptr noundef nonnull @.str.175, i32 noundef %17, i32 noundef %17)
  %22 = load i32, ptr @ett_raknet_packet_number_range, align 4
  %23 = call ptr @proto_item_add_subtree(ptr noundef %21, i32 noundef %22)
  %24 = load i32, ptr @hf_raknet_range_max_equal_to_min, align 4
  %25 = call ptr @proto_tree_add_item(ptr noundef %23, i32 noundef %24, ptr noundef %0, i32 noundef %.02, i32 noundef 1, i32 noundef 0)
  %26 = load i32, ptr @hf_raknet_packet_number_min, align 4
  %27 = call ptr @proto_tree_add_item(ptr noundef %23, i32 noundef %26, ptr noundef %0, i32 noundef %16, i32 noundef 3, i32 noundef -2147483648)
  br label %42

28:                                               ; preds = %12
  %29 = add i32 %.02, 4
  %30 = call i32 @tvb_get_uint24(ptr noundef %0, i32 noundef %29, i32 noundef -2147483648)
  %31 = load ptr, ptr %11, align 8
  call void (ptr, i32, ptr, ...) @col_append_fstr(ptr noundef %31, i32 noundef 25, ptr noundef nonnull @.str.176, i32 noundef %17, i32 noundef %30)
  %32 = load i32, ptr @hf_raknet_packet_number_range, align 4
  %33 = call ptr (ptr, i32, ptr, i32, i32, ptr, ptr, ...) @proto_tree_add_string_format_value(ptr noundef nonnull %2, i32 noundef %32, ptr noundef %0, i32 noundef %.02, i32 noundef 7, ptr noundef nonnull @.str.174, ptr noundef nonnull @.str.175, i32 noundef %17, i32 noundef %30)
  %34 = load i32, ptr @ett_raknet_packet_number_range, align 4
  %35 = call ptr @proto_item_add_subtree(ptr noundef %33, i32 noundef %34)
  %36 = load i32, ptr @hf_raknet_range_max_equal_to_min, align 4
  %37 = call ptr @proto_tree_add_item(ptr noundef %35, i32 noundef %36, ptr noundef %0, i32 noundef %.02, i32 noundef 1, i32 noundef 0)
  %38 = load i32, ptr @hf_raknet_packet_number_min, align 4
  %39 = call ptr @proto_tree_add_item(ptr noundef %35, i32 noundef %38, ptr noundef %0, i32 noundef %16, i32 noundef 3, i32 noundef -2147483648)
  %40 = load i32, ptr @hf_raknet_packet_number_max, align 4
  %41 = call ptr @proto_tree_add_item(ptr noundef %35, i32 noundef %40, ptr noundef %0, i32 noundef %29, i32 noundef 3, i32 noundef -2147483648)
  br label %42

42:                                               ; preds = %28, %18
  %.sink = phi i32 [ 7, %28 ], [ 4, %18 ]
  %43 = add i32 %.02, %.sink
  %44 = add nuw i32 %.0571, 1
  %45 = load i32, ptr %4, align 4
  %46 = icmp ult i32 %44, %45
  br i1 %46, label %12, label %._crit_edge, !llvm.loop !13

._crit_edge:                                      ; preds = %42, %3
  %47 = call i32 @tvb_captured_length(ptr noundef %0)
  call void @llvm.lifetime.end.p0(i64 4, ptr nonnull %4) #5
  ret void
}